; Function Attrs: mustprogress uwtable
define void @_ZN5arrow14ExtensionArrayC2ERKSt10shared_ptrINS_9ArrayDataEE(ptr noundef nonnull align 8 dereferenceable(48) initializes((0, 48)) %0, ptr noundef nonnull align 8 dereferenceable(16) %1) unnamed_addr #1 align 2 personality ptr @__gxx_personality_v0 {
  %3 = getelementptr inbounds nuw i8, ptr %0, i64 8
  tail call void @llvm.memset.p0.i64(ptr noundef nonnull align 8 dereferenceable(24) %3, i8 0, i64 24, i1 false)
  store ptr getelementptr inbounds nuw inrange(-16, 16) (i8, ptr @_ZTVN5arrow14ExtensionArrayE, i64 16), ptr %0, align 8, !tbaa !38
  %4 = getelementptr inbounds nuw i8, ptr %0, i64 32
  tail call void @llvm.memset.p0.i64(ptr noundef nonnull align 8 dereferenceable(16) %4, i8 0, i64 16, i1 false)
  invoke void @_ZN5arrow14ExtensionArray7SetDataERKSt10shared_ptrINS_9ArrayDataEE(ptr noundef nonnull align 8 dereferenceable(48) %0, ptr noundef nonnull align 8 dereferenceable(16) %1)
          to label %5 unwind label %6

5:                                                ; preds = %2
  ret void

6:                                                ; preds = %2
  %7 = landingpad { ptr, i32 }
          cleanup
  tail call void @_ZNSt12__shared_ptrIN5arrow5ArrayELN9__gnu_cxx12_Lock_policyE2EED2Ev(ptr noundef nonnull align 8 dereferenceable(16) %4) #23
  tail call void @_ZN5arrow5ArrayD2Ev(ptr noundef nonnull align 8 dereferenceable(32) %0) #23
  resume { ptr, i32 } %7
}